; Function Attrs: nounwind uwtable
define hidden void @_xml_processingInstructionHandler(ptr noundef readonly %0, ptr noundef %1, ptr noundef %2) #0 {
  %4 = alloca [3 x %struct._zval_struct], align 16
  %.not = icmp eq ptr %0, null
  br i1 %.not, label %70, label %5

5:                                                ; preds = %3
  %6 = getelementptr inbounds i8, ptr %0, i64 160
  %7 = load ptr, ptr %6, align 8
  %.not34 = icmp eq ptr %7, null
  br i1 %.not34, label %70, label %8

8:                                                ; preds = %5
  %9 = getelementptr inbounds i8, ptr %0, i64 16
  %10 = load ptr, ptr %9, align 8
  %11 = getelementptr inbounds i8, ptr %0, i64 24
  %12 = load i32, ptr %11, align 8
  store ptr %10, ptr %4, align 16
  %13 = getelementptr inbounds i8, ptr %4, i64 8
  store i32 %12, ptr %13, align 8
  %14 = and i32 %12, 65280
  %.not35 = icmp eq i32 %14, 0
  br i1 %.not35, label %18, label %15

15:                                               ; preds = %8
  %16 = load i32, ptr %10, align 4
  %17 = add i32 %16, 1
  store i32 %17, ptr %10, align 4
  br label %18

18:                                               ; preds = %8, %15
  %19 = getelementptr inbounds i8, ptr %0, i64 8
  %20 = load ptr, ptr %19, align 8
  %21 = getelementptr inbounds i8, ptr %4, i64 16
  %22 = icmp eq ptr %1, null
  br i1 %22, label %_xml_xmlchar_zval.exit, label %23

23:                                               ; preds = %18
  %24 = load i8, ptr %1, align 1
  %.not4.i.i = icmp eq i8 %24, 0
  br i1 %.not4.i.i, label %_xml_xmlcharlen.exit.i, label %.lr.ph.i.i

.lr.ph.i.i:                                       ; preds = %23, %.lr.ph.i.i
  %.06.i.i = phi i32 [ %25, %.lr.ph.i.i ], [ 0, %23 ]
  %.035.i.i = phi ptr [ %26, %.lr.ph.i.i ], [ %1, %23 ]
  %25 = add nuw nsw i32 %.06.i.i, 1
  %26 = getelementptr inbounds i8, ptr %.035.i.i, i64 1
  %27 = load i8, ptr %26, align 1
  %.not.i.i = icmp eq i8 %27, 0
  br i1 %.not.i.i, label %_xml_xmlcharlen.exit.i.loopexit, label %.lr.ph.i.i

_xml_xmlcharlen.exit.i.loopexit:                  ; preds = %.lr.ph.i.i
  %28 = zext nneg i32 %25 to i64
  br label %_xml_xmlcharlen.exit.i

_xml_xmlcharlen.exit.i:                           ; preds = %_xml_xmlcharlen.exit.i.loopexit, %23
  %.0.i = phi i64 [ 0, %23 ], [ %28, %_xml_xmlcharlen.exit.i.loopexit ]
  %29 = tail call fastcc ptr @xml_utf8_decode(ptr noundef nonnull %1, i64 noundef %.0.i, ptr noundef %20)
  store ptr %29, ptr %21, align 16
  %30 = getelementptr inbounds i8, ptr %29, i64 4
  %31 = load i32, ptr %30, align 4
  %32 = and i32 %31, 64
  %.not.i = icmp eq i32 %32, 0
  %33 = select i1 %.not.i, i32 262, i32 6
  %.pre = load ptr, ptr %19, align 8
  br label %_xml_xmlchar_zval.exit

_xml_xmlchar_zval.exit:                           ; preds = %18, %_xml_xmlcharlen.exit.i
  %34 = phi ptr [ %.pre, %_xml_xmlcharlen.exit.i ], [ %20, %18 ]
  %.sink.i = phi i32 [ %33, %_xml_xmlcharlen.exit.i ], [ 2, %18 ]
  %35 = getelementptr inbounds i8, ptr %4, i64 24
  store i32 %.sink.i, ptr %35, align 8
  %36 = getelementptr inbounds i8, ptr %4, i64 32
  %37 = icmp eq ptr %2, null
  br i1 %37, label %_xml_xmlchar_zval.exit47, label %38

38:                                               ; preds = %_xml_xmlchar_zval.exit
  %39 = load i8, ptr %2, align 1
  %.not4.i.i38 = icmp eq i8 %39, 0
  br i1 %.not4.i.i38, label %_xml_xmlcharlen.exit.i43, label %.lr.ph.i.i39

.lr.ph.i.i39:                                     ; preds = %38, %.lr.ph.i.i39
  %.06.i.i40 = phi i32 [ %40, %.lr.ph.i.i39 ], [ 0, %38 ]
  %.035.i.i41 = phi ptr [ %41, %.lr.ph.i.i39 ], [ %2, %38 ]
  %40 = add nuw nsw i32 %.06.i.i40, 1
  %41 = getelementptr inbounds i8, ptr %.035.i.i41, i64 1
  %42 = load i8, ptr %41, align 1
  %.not.i.i42 = icmp eq i8 %42, 0
  br i1 %.not.i.i42, label %_xml_xmlcharlen.exit.i43.loopexit, label %.lr.ph.i.i39

_xml_xmlcharlen.exit.i43.loopexit:                ; preds = %.lr.ph.i.i39
  %43 = zext nneg i32 %40 to i64
  br label %_xml_xmlcharlen.exit.i43

_xml_xmlcharlen.exit.i43:                         ; preds = %_xml_xmlcharlen.exit.i43.loopexit, %38
  %.0.i44 = phi i64 [ 0, %38 ], [ %43, %_xml_xmlcharlen.exit.i43.loopexit ]
  %44 = tail call fastcc ptr @xml_utf8_decode(ptr noundef nonnull %2, i64 noundef %.0.i44, ptr noundef %34)
  store ptr %44, ptr %36, align 16
  %45 = getelementptr inbounds i8, ptr %44, i64 4
  %46 = load i32, ptr %45, align 4
  %47 = and i32 %46, 64
  %.not.i45 = icmp eq i32 %47, 0
  %48 = select i1 %.not.i45, i32 262, i32 6
  br label %_xml_xmlchar_zval.exit47

_xml_xmlchar_zval.exit47:                         ; preds = %_xml_xmlchar_zval.exit, %_xml_xmlcharlen.exit.i43
  %.sink.i46 = phi i32 [ %48, %_xml_xmlcharlen.exit.i43 ], [ 2, %_xml_xmlchar_zval.exit ]
  %49 = getelementptr inbounds i8, ptr %4, i64 40
  store i32 %.sink.i46, ptr %49, align 8
  %50 = load ptr, ptr %6, align 8
  %51 = getelementptr inbounds i8, ptr %50, i64 4
  %52 = load i32, ptr %51, align 4
  %53 = and i32 %52, 262144
  %.not36 = icmp eq i32 %53, 0
  br i1 %.not36, label %65, label %54

54:                                               ; preds = %_xml_xmlchar_zval.exit47
  %55 = tail call noalias ptr @_emalloc_256() #16
  %56 = load ptr, ptr %6, align 8
  tail call void @llvm.memcpy.p0.p0.i64(ptr noundef nonnull align 8 dereferenceable(240) %55, ptr noundef nonnull align 8 dereferenceable(240) %56, i64 240, i1 false)
  %57 = getelementptr inbounds i8, ptr %55, i64 8
  %58 = load ptr, ptr %57, align 8
  %59 = getelementptr inbounds i8, ptr %58, i64 4
  %60 = load i32, ptr %59, align 4
  %61 = and i32 %60, 64
  %.not37 = icmp eq i32 %61, 0
  br i1 %.not37, label %62, label %65

62:                                               ; preds = %54
  %63 = load i32, ptr %58, align 4
  %64 = add i32 %63, 1
  store i32 %64, ptr %58, align 4
  br label %65

65:                                               ; preds = %54, %62, %_xml_xmlchar_zval.exit47
  %.0 = phi ptr [ %55, %62 ], [ %50, %_xml_xmlchar_zval.exit47 ], [ %55, %54 ]
  %66 = getelementptr inbounds i8, ptr %0, i64 184
  %67 = load ptr, ptr %66, align 8
  %68 = getelementptr inbounds i8, ptr %0, i64 176
  %69 = load ptr, ptr %68, align 8
  call void @zend_call_known_function(ptr noundef nonnull %.0, ptr noundef %67, ptr noundef %69, ptr noundef null, i32 noundef 3, ptr noundef nonnull %4, ptr noundef null) #16
  call void @zval_ptr_dtor(ptr noundef nonnull %4) #16
  call void @zval_ptr_dtor(ptr noundef nonnull %21) #16
  call void @zval_ptr_dtor(ptr noundef nonnull %36) #16
  br label %70

70:                                               ; preds = %3, %5, %65
  ret void
}